; Function Attrs: nounwind uwtable
define i32 @Abc_NtkSizeOfGlobalBdds(ptr noundef readonly captures(none) %0) local_unnamed_addr #0 {
  %2 = getelementptr i8, ptr %0, i64 64
  %.val12 = load ptr, ptr %2, align 8
  %3 = getelementptr i8, ptr %.val12, i64 4
  %.val12.val = load i32, ptr %3, align 4
  %4 = tail call noalias dereferenceable_or_null(16) ptr @malloc(i64 noundef 16) #15
  %5 = add i32 %.val12.val, -1
  %or.cond.i = icmp ult i32 %5, 7
  %spec.store.select.i = select i1 %or.cond.i, i32 8, i32 %.val12.val
  %6 = getelementptr inbounds nuw i8, ptr %4, i64 4
  store i32 0, ptr %6, align 4
  store i32 %spec.store.select.i, ptr %4, align 8
  %.not.i = icmp eq i32 %spec.store.select.i, 0
  br i1 %.not.i, label %Vec_PtrAlloc.exit, label %7

7:                                                ; preds = %1
  %8 = sext i32 %spec.store.select.i to i64
  %9 = shl nsw i64 %8, 3
  %10 = tail call noalias ptr @malloc(i64 noundef %9) #15
  br label %Vec_PtrAlloc.exit

Vec_PtrAlloc.exit:                                ; preds = %1, %7
  %11 = phi ptr [ %10, %7 ], [ null, %1 ]
  %12 = getelementptr inbounds nuw i8, ptr %4, i64 8
  store ptr %11, ptr %12, align 8
  %13 = icmp sgt i32 %.val12.val, 0
  br i1 %13, label %.lr.ph, label %.critedge

.lr.ph:                                           ; preds = %Vec_PtrAlloc.exit, %Vec_PtrPush.exit
  %indvars.iv = phi i64 [ %indvars.iv.next, %Vec_PtrPush.exit ], [ 0, %Vec_PtrAlloc.exit ]
  %.val1121 = phi ptr [ %.val11, %Vec_PtrPush.exit ], [ %.val12, %Vec_PtrAlloc.exit ]
  %14 = getelementptr i8, ptr %.val1121, i64 8
  %.val13.val = load ptr, ptr %14, align 8
  %15 = getelementptr inbounds nuw ptr, ptr %.val13.val, i64 %indvars.iv
  %16 = load ptr, ptr %15, align 8
  %.val14 = load ptr, ptr %16, align 8
  %17 = getelementptr i8, ptr %16, i64 16
  %.val15 = load i32, ptr %17, align 8
  %18 = getelementptr i8, ptr %.val14, i64 432
  %.val14.val = load ptr, ptr %18, align 8
  %19 = getelementptr i8, ptr %.val14.val, i64 8
  %.val14.val.val = load ptr, ptr %19, align 8
  %20 = getelementptr i8, ptr %.val14.val.val, i64 56
  %.val14.val.val.val = load ptr, ptr %20, align 8
  %21 = load i32, ptr %.val14.val.val.val, align 8
  %.not.i.i = icmp slt i32 %.val15, %21
  br i1 %.not.i.i, label %Vec_AttGrow.exit.i.i, label %22

22:                                               ; preds = %.lr.ph
  %23 = shl nsw i32 %21, 1
  %24 = icmp sgt i32 %23, %.val15
  %25 = add nsw i32 %.val15, 10
  %26 = select i1 %24, i32 %23, i32 %25
  %.not.i.i.i = icmp slt i32 %21, %26
  br i1 %.not.i.i.i, label %27, label %Vec_AttGrow.exit.i.i

27:                                               ; preds = %22
  %28 = getelementptr inbounds nuw i8, ptr %.val14.val.val.val, i64 8
  %29 = load ptr, ptr %28, align 8
  %.not13.i.i.i = icmp eq ptr %29, null
  %30 = sext i32 %26 to i64
  %31 = shl nsw i64 %30, 3
  br i1 %.not13.i.i.i, label %34, label %32

32:                                               ; preds = %27
  %33 = tail call ptr @realloc(ptr noundef nonnull %29, i64 noundef %31) #16
  %.pre.i.i.i = load i32, ptr %.val14.val.val.val, align 8
  br label %36

34:                                               ; preds = %27
  %35 = tail call noalias ptr @malloc(i64 noundef %31) #15
  br label %36

36:                                               ; preds = %34, %32
  %37 = phi i32 [ %.pre.i.i.i, %32 ], [ %21, %34 ]
  %38 = phi ptr [ %33, %32 ], [ %35, %34 ]
  store ptr %38, ptr %28, align 8
  %39 = sext i32 %37 to i64
  %40 = getelementptr inbounds ptr, ptr %38, i64 %39
  %41 = sub nsw i32 %26, %37
  %42 = sext i32 %41 to i64
  %43 = shl nsw i64 %42, 3
  tail call void @llvm.memset.p0.i64(ptr align 8 %40, i8 0, i64 %43, i1 false)
  store i32 %26, ptr %.val14.val.val.val, align 8
  br label %Vec_AttGrow.exit.i.i

Vec_AttGrow.exit.i.i:                             ; preds = %36, %22, %.lr.ph
  %44 = getelementptr inbounds nuw i8, ptr %.val14.val.val.val, i64 8
  %45 = load ptr, ptr %44, align 8
  %46 = sext i32 %.val15 to i64
  %47 = getelementptr inbounds ptr, ptr %45, i64 %46
  %48 = load ptr, ptr %47, align 8
  %49 = icmp eq ptr %48, null
  br i1 %49, label %50, label %Abc_ObjGlobalBdd.exit

50:                                               ; preds = %Vec_AttGrow.exit.i.i
  %51 = getelementptr inbounds nuw i8, ptr %.val14.val.val.val, i64 32
  %52 = load ptr, ptr %51, align 8
  %.not18.i.i = icmp eq ptr %52, null
  br i1 %.not18.i.i, label %Abc_ObjGlobalBdd.exit, label %53

53:                                               ; preds = %50
  %54 = getelementptr inbounds nuw i8, ptr %.val14.val.val.val, i64 16
  %55 = load ptr, ptr %54, align 8
  %56 = tail call ptr %52(ptr noundef %55) #14
  %57 = load ptr, ptr %44, align 8
  %58 = getelementptr inbounds ptr, ptr %57, i64 %46
  store ptr %56, ptr %58, align 8
  %.pre.i.i = load ptr, ptr %44, align 8
  %.phi.trans.insert.i.i = getelementptr inbounds ptr, ptr %.pre.i.i, i64 %46
  %.pre19.i.i = load ptr, ptr %.phi.trans.insert.i.i, align 8
  br label %Abc_ObjGlobalBdd.exit

Abc_ObjGlobalBdd.exit:                            ; preds = %Vec_AttGrow.exit.i.i, %50, %53
  %59 = phi ptr [ %.pre19.i.i, %53 ], [ null, %50 ], [ %48, %Vec_AttGrow.exit.i.i ]
  %60 = load i32, ptr %6, align 4
  %61 = load i32, ptr %4, align 8
  %62 = icmp eq i32 %60, %61
  br i1 %62, label %63, label %.Vec_PtrGrow.exit11_crit_edge.i

.Vec_PtrGrow.exit11_crit_edge.i:                  ; preds = %Abc_ObjGlobalBdd.exit
  %.pre.i = load ptr, ptr %12, align 8
  br label %Vec_PtrPush.exit

63:                                               ; preds = %Abc_ObjGlobalBdd.exit
  %64 = icmp slt i32 %60, 16
  br i1 %64, label %65, label %72

65:                                               ; preds = %63
  %66 = load ptr, ptr %12, align 8
  %.not9.i.i = icmp eq ptr %66, null
  br i1 %.not9.i.i, label %69, label %67

67:                                               ; preds = %65
  %68 = tail call dereferenceable_or_null(128) ptr @realloc(ptr noundef nonnull %66, i64 noundef 128) #16
  br label %Vec_PtrGrow.exit.i

69:                                               ; preds = %65
  %70 = tail call noalias dereferenceable_or_null(128) ptr @malloc(i64 noundef 128) #15
  br label %Vec_PtrGrow.exit.i

Vec_PtrGrow.exit.i:                               ; preds = %69, %67
  %71 = phi ptr [ %68, %67 ], [ %70, %69 ]
  store ptr %71, ptr %12, align 8
  store i32 16, ptr %4, align 8
  br label %Vec_PtrPush.exit

72:                                               ; preds = %63
  %73 = shl nuw nsw i32 %60, 1
  %74 = load ptr, ptr %12, align 8
  %.not9.i10.i = icmp eq ptr %74, null
  %75 = zext nneg i32 %73 to i64
  %76 = shl nuw nsw i64 %75, 3
  br i1 %.not9.i10.i, label %79, label %77

77:                                               ; preds = %72
  %78 = tail call ptr @realloc(ptr noundef nonnull %74, i64 noundef %76) #16
  br label %81

79:                                               ; preds = %72
  %80 = tail call noalias ptr @malloc(i64 noundef %76) #15
  br label %81

81:                                               ; preds = %79, %77
  %82 = phi ptr [ %78, %77 ], [ %80, %79 ]
  store ptr %82, ptr %12, align 8
  store i32 %73, ptr %4, align 8
  br label %Vec_PtrPush.exit

Vec_PtrPush.exit:                                 ; preds = %.Vec_PtrGrow.exit11_crit_edge.i, %Vec_PtrGrow.exit.i, %81
  %83 = phi ptr [ %.pre.i, %.Vec_PtrGrow.exit11_crit_edge.i ], [ %82, %81 ], [ %71, %Vec_PtrGrow.exit.i ]
  %84 = add nsw i32 %60, 1
  store i32 %84, ptr %6, align 4
  %85 = sext i32 %60 to i64
  %86 = getelementptr inbounds ptr, ptr %83, i64 %85
  store ptr %59, ptr %86, align 8
  %indvars.iv.next = add nuw nsw i64 %indvars.iv, 1
  %.val11 = load ptr, ptr %2, align 8
  %87 = getelementptr i8, ptr %.val11, i64 4
  %.val11.val = load i32, ptr %87, align 4
  %88 = sext i32 %.val11.val to i64
  %89 = icmp slt i64 %indvars.iv.next, %88
  br i1 %89, label %.lr.ph, label %.critedge.loopexit, !llvm.loop !21

.critedge.loopexit:                               ; preds = %Vec_PtrPush.exit
  %.val16.pre = load ptr, ptr %12, align 8
  %.val.pre = load i32, ptr %6, align 4
  br label %.critedge

.critedge:                                        ; preds = %.critedge.loopexit, %Vec_PtrAlloc.exit
  %.val = phi i32 [ %.val.pre, %.critedge.loopexit ], [ 0, %Vec_PtrAlloc.exit ]
  %.val16 = phi ptr [ %.val16.pre, %.critedge.loopexit ], [ %11, %Vec_PtrAlloc.exit ]
  %90 = tail call i32 @Cudd_SharingSize(ptr noundef %.val16, i32 noundef %.val) #14
  %.not.i17 = icmp eq ptr %.val16, null
  br i1 %.not.i17, label %Vec_PtrFree.exit, label %91

91:                                               ; preds = %.critedge
  tail call void @free(ptr noundef nonnull %.val16) #14
  br label %Vec_PtrFree.exit

Vec_PtrFree.exit:                                 ; preds = %.critedge, %91
  tail call void @free(ptr noundef nonnull %4) #14
  ret i32 %90
}